; Function Attrs: mustprogress nounwind uwtable
define void @_ZN7testing8internal8GTestLogD2Ev(ptr noundef nonnull readonly align 4 captures(none) dereferenceable(4) %0) unnamed_addr #5 align 2 personality ptr @__gxx_personality_v0 {
  %2 = load ptr, ptr @_ZSt4cerr, align 8, !tbaa !23
  %3 = getelementptr i8, ptr %2, i64 -24
  %4 = load i64, ptr %3, align 8
  %5 = getelementptr inbounds i8, ptr @_ZSt4cerr, i64 %4
  %6 = getelementptr inbounds nuw i8, ptr %5, i64 240
  %7 = load ptr, ptr %6, align 8, !tbaa !551
  %.not.i.i.i = icmp eq ptr %7, null
  br i1 %.not.i.i.i, label %8, label %_ZSt13__check_facetISt5ctypeIcEERKT_PS3_.exit.i.i

8:                                                ; preds = %1
  invoke void @_ZSt16__throw_bad_castv() #58
          to label %.noexc unwind label %27

.noexc:                                           ; preds = %8
  unreachable

_ZSt13__check_facetISt5ctypeIcEERKT_PS3_.exit.i.i: ; preds = %1
  %9 = getelementptr inbounds nuw i8, ptr %7, i64 56
  %10 = load i8, ptr %9, align 8, !tbaa !552
  %.not.i1.i.i = icmp eq i8 %10, 0
  br i1 %.not.i1.i.i, label %14, label %11

11:                                               ; preds = %_ZSt13__check_facetISt5ctypeIcEERKT_PS3_.exit.i.i
  %12 = getelementptr inbounds nuw i8, ptr %7, i64 67
  %13 = load i8, ptr %12, align 1, !tbaa !13
  br label %_ZNKSt9basic_iosIcSt11char_traitsIcEE5widenEc.exit.i

14:                                               ; preds = %_ZSt13__check_facetISt5ctypeIcEERKT_PS3_.exit.i.i
  invoke void @_ZNKSt5ctypeIcE13_M_widen_initEv(ptr noundef nonnull align 8 dereferenceable(570) %7)
          to label %.noexc1 unwind label %27

.noexc1:                                          ; preds = %14
  %15 = load ptr, ptr %7, align 8, !tbaa !23
  %16 = getelementptr inbounds nuw i8, ptr %15, i64 48
  %17 = load ptr, ptr %16, align 8
  %18 = invoke noundef signext i8 %17(ptr noundef nonnull align 8 dereferenceable(570) %7, i8 noundef signext 10)
          to label %_ZNKSt9basic_iosIcSt11char_traitsIcEE5widenEc.exit.i unwind label %27

_ZNKSt9basic_iosIcSt11char_traitsIcEE5widenEc.exit.i: ; preds = %.noexc1, %11
  %.0.i.i.i = phi i8 [ %13, %11 ], [ %18, %.noexc1 ]
  %19 = invoke noundef nonnull align 8 dereferenceable(8) ptr @_ZNSo3putEc(ptr noundef nonnull align 8 dereferenceable(8) @_ZSt4cerr, i8 noundef signext %.0.i.i.i)
          to label %.noexc3 unwind label %27

.noexc3:                                          ; preds = %_ZNKSt9basic_iosIcSt11char_traitsIcEE5widenEc.exit.i
  %20 = invoke noundef nonnull align 8 dereferenceable(8) ptr @_ZNSo5flushEv(ptr noundef nonnull align 8 dereferenceable(8) %19)
          to label %_ZNSolsEPFRSoS_E.exit unwind label %27

_ZNSolsEPFRSoS_E.exit:                            ; preds = %.noexc3
  %21 = load i32, ptr %0, align 4, !tbaa !1667
  %22 = icmp eq i32 %21, 3
  br i1 %22, label %23, label %26

23:                                               ; preds = %_ZNSolsEPFRSoS_E.exit
  %24 = load ptr, ptr @stderr, align 8, !tbaa !28
  %25 = tail call i32 @fflush(ptr noundef %24)
  tail call void @abort() #61
  unreachable

26:                                               ; preds = %_ZNSolsEPFRSoS_E.exit
  ret void

27:                                               ; preds = %.noexc3, %_ZNKSt9basic_iosIcSt11char_traitsIcEE5widenEc.exit.i, %.noexc1, %14, %8
  %28 = landingpad { ptr, i32 }
          catch ptr null
  %29 = extractvalue { ptr, i32 } %28, 0
  tail call void @__clang_call_terminate(ptr %29) #61
  unreachable
}